target datalayout = "e-m:e-p270:32:32-p271:32:32-p272:64:64-i64:64-i128:128-f80:128-n8:16:32:64-S128"
target triple = "x86_64-pc-linux-gnu"

%"class.llvm::SmallVectorBase" = type { ptr, i32, i32 }
%"class.llvm::ArrayRef.24" = type { ptr, i64 }
%"class.llvm::Metadata" = type { i8, i8, i16, i32 }
%"struct.llvm::MDNode::Header" = type <{ i64, i32, [4 x i8] }>
%"class.llvm::MDOperand" = type { ptr }

; Function Attrs: mustprogress nounwind uwtable
define linkonce_odr hidden noundef i32 @_ZNK4llvm8Metadata13getMetadataIDEv(ptr noundef nonnull align 4 dereferenceable(8) %0) #1 comdat align 2 {
  %2 = alloca ptr, align 8
  store ptr %0, ptr %2, align 8
  %3 = load ptr, ptr %2, align 8
  %4 = getelementptr inbounds nuw %"class.llvm::Metadata", ptr %3, i32 0, i32 0
  %5 = load i8, ptr %4, align 4
  %6 = zext i8 %5 to i32
  ret i32 %6
}

; Function Attrs: mustprogress nounwind uwtable
define linkonce_odr hidden noundef zeroext i1 @_ZN4llvm6MDNode7classofEPKNS_8MetadataE(ptr noundef %0) #1 comdat align 2 {
  %2 = alloca i1, align 1
  %3 = alloca ptr, align 8
  store ptr %0, ptr %3, align 8
  %4 = load ptr, ptr %3, align 8
  %5 = call noundef i32 @_ZNK4llvm8Metadata13getMetadataIDEv(ptr noundef nonnull align 4 dereferenceable(8) %4)
  switch i32 %5, label %6 [
    i32 5, label %7
    i32 6, label %8
    i32 7, label %9
    i32 8, label %10
    i32 9, label %11
    i32 10, label %12
    i32 11, label %13
    i32 12, label %14
    i32 13, label %15
    i32 14, label %16
    i32 15, label %17
    i32 16, label %18
    i32 17, label %19
    i32 18, label %20
    i32 19, label %21
    i32 20, label %22
    i32 21, label %23
    i32 22, label %24
    i32 23, label %25
    i32 24, label %26
    i32 25, label %27
    i32 26, label %28
    i32 27, label %29
    i32 28, label %30
    i32 29, label %31
    i32 30, label %32
    i32 31, label %33
    i32 32, label %34
    i32 33, label %35
    i32 34, label %36
    i32 35, label %37
  ]

6:                                                ; preds = %1
  store i1 false, ptr %2, align 1
  br label %38

7:                                                ; preds = %1
  store i1 true, ptr %2, align 1
  br label %38

8:                                                ; preds = %1
  store i1 true, ptr %2, align 1
  br label %38

9:                                                ; preds = %1
  store i1 true, ptr %2, align 1
  br label %38

10:                                               ; preds = %1
  store i1 true, ptr %2, align 1
  br label %38

11:                                               ; preds = %1
  store i1 true, ptr %2, align 1
  br label %38

12:                                               ; preds = %1
  store i1 true, ptr %2, align 1
  br label %38

13:                                               ; preds = %1
  store i1 true, ptr %2, align 1
  br label %38

14:                                               ; preds = %1
  store i1 true, ptr %2, align 1
  br label %38

15:                                               ; preds = %1
  store i1 true, ptr %2, align 1
  br label %38

16:                                               ; preds = %1
  store i1 true, ptr %2, align 1
  br label %38

17:                                               ; preds = %1
  store i1 true, ptr %2, align 1
  br label %38

18:                                               ; preds = %1
  store i1 true, ptr %2, align 1
  br label %38

19:                                               ; preds = %1
  store i1 true, ptr %2, align 1
  br label %38

20:                                               ; preds = %1
  store i1 true, ptr %2, align 1
  br label %38

21:                                               ; preds = %1
  store i1 true, ptr %2, align 1
  br label %38

22:                                               ; preds = %1
  store i1 true, ptr %2, align 1
  br label %38

23:                                               ; preds = %1
  store i1 true, ptr %2, align 1
  br label %38

24:                                               ; preds = %1
  store i1 true, ptr %2, align 1
  br label %38

25:                                               ; preds = %1
  store i1 true, ptr %2, align 1
  br label %38

26:                                               ; preds = %1
  store i1 true, ptr %2, align 1
  br label %38

27:                                               ; preds = %1
  store i1 true, ptr %2, align 1
  br label %38

28:                                               ; preds = %1
  store i1 true, ptr %2, align 1
  br label %38

29:                                               ; preds = %1
  store i1 true, ptr %2, align 1
  br label %38

30:                                               ; preds = %1
  store i1 true, ptr %2, align 1
  br label %38

31:                                               ; preds = %1
  store i1 true, ptr %2, align 1
  br label %38

32:                                               ; preds = %1
  store i1 true, ptr %2, align 1
  br label %38

33:                                               ; preds = %1
  store i1 true, ptr %2, align 1
  br label %38

34:                                               ; preds = %1
  store i1 true, ptr %2, align 1
  br label %38

35:                                               ; preds = %1
  store i1 true, ptr %2, align 1
  br label %38

36:                                               ; preds = %1
  store i1 true, ptr %2, align 1
  br label %38

37:                                               ; preds = %1
  store i1 true, ptr %2, align 1
  br label %38

38:                                               ; preds = %37, %36, %35, %34, %33, %32, %31, %30, %29, %28, %27, %26, %25, %24, %23, %22, %21, %20, %19, %18, %17, %16, %15, %14, %13, %12, %11, %10, %9, %8, %7, %6
  %39 = load i1, ptr %2, align 1
  ret i1 %39
}

; Function Attrs: mustprogress nounwind uwtable
define linkonce_odr hidden noundef zeroext i1 @_ZN4llvm8isa_implINS_6MDNodeENS_8MetadataEvE4doitERKS2_(ptr noundef nonnull align 4 dereferenceable(8) %0) #1 comdat align 2 {
  %2 = alloca ptr, align 8
  store ptr %0, ptr %2, align 8
  %3 = load ptr, ptr %2, align 8
  %4 = call noundef zeroext i1 @_ZN4llvm6MDNode7classofEPKNS_8MetadataE(ptr noundef %3)
  ret i1 %4
}

; Function Attrs: mustprogress nounwind uwtable
define linkonce_odr hidden noundef zeroext i1 @_ZN4llvm11isa_impl_clINS_6MDNodeEPKNS_8MetadataEE4doitES4_(ptr noundef %0) #1 comdat align 2 {
  %2 = alloca ptr, align 8
  store ptr %0, ptr %2, align 8
  %3 = load ptr, ptr %2, align 8
  %4 = call noundef zeroext i1 @_ZN4llvm8isa_implINS_6MDNodeENS_8MetadataEvE4doitERKS2_(ptr noundef nonnull align 4 dereferenceable(8) %3)
  ret i1 %4
}

; Function Attrs: mustprogress nounwind uwtable
define linkonce_odr hidden noundef nonnull align 8 dereferenceable(8) ptr @_ZN4llvm13simplify_typeIPNS_8MetadataEE18getSimplifiedValueERS2_(ptr noundef nonnull align 8 dereferenceable(8) %0) #1 comdat align 2 {
  %2 = alloca ptr, align 8
  store ptr %0, ptr %2, align 8
  %3 = load ptr, ptr %2, align 8
  ret ptr %3
}

; Function Attrs: mustprogress nounwind uwtable
define linkonce_odr hidden noundef zeroext i1 @_ZN4llvm13isa_impl_wrapINS_6MDNodeEPKNS_8MetadataES4_E4doitERKS4_(ptr noundef nonnull align 8 dereferenceable(8) %0) #1 comdat align 2 {
  %2 = alloca ptr, align 8
  store ptr %0, ptr %2, align 8
  %3 = load ptr, ptr %2, align 8
  %4 = load ptr, ptr %3, align 8
  %5 = call noundef zeroext i1 @_ZN4llvm11isa_impl_clINS_6MDNodeEPKNS_8MetadataEE4doitES4_(ptr noundef %4)
  ret i1 %5
}

; Function Attrs: mustprogress nounwind uwtable
define linkonce_odr hidden noundef ptr @_ZN4llvm13simplify_typeIKPNS_8MetadataEE18getSimplifiedValueERS3_(ptr noundef nonnull align 8 dereferenceable(8) %0) #1 comdat align 2 {
  %2 = alloca ptr, align 8
  store ptr %0, ptr %2, align 8
  %3 = load ptr, ptr %2, align 8
  %4 = call noundef nonnull align 8 dereferenceable(8) ptr @_ZN4llvm13simplify_typeIPNS_8MetadataEE18getSimplifiedValueERS2_(ptr noundef nonnull align 8 dereferenceable(8) %3)
  %5 = load ptr, ptr %4, align 8
  ret ptr %5
}

; Function Attrs: mustprogress nounwind uwtable
define linkonce_odr hidden noundef ptr @_ZNK4llvm25SmallVectorTemplateCommonINS_9MDOperandEvE5beginEv(ptr noundef nonnull align 8 dereferenceable(16) %0) #1 comdat align 2 {
  %2 = alloca ptr, align 8
  store ptr %0, ptr %2, align 8
  %3 = load ptr, ptr %2, align 8
  %4 = getelementptr inbounds nuw %"class.llvm::SmallVectorBase", ptr %3, i32 0, i32 0
  %5 = load ptr, ptr %4, align 8
  ret ptr %5
}

; Function Attrs: mustprogress nounwind uwtable
define linkonce_odr hidden noundef zeroext i1 @_ZN4llvm13isa_impl_wrapINS_6MDNodeEKPNS_8MetadataEPKS2_E4doitERS4_(ptr noundef nonnull align 8 dereferenceable(8) %0) #1 comdat align 2 {
  %2 = alloca ptr, align 8
  %3 = alloca ptr, align 8
  store ptr %0, ptr %2, align 8
  %4 = load ptr, ptr %2, align 8
  %5 = call noundef ptr @_ZN4llvm13simplify_typeIKPNS_8MetadataEE18getSimplifiedValueERS3_(ptr noundef nonnull align 8 dereferenceable(8) %4)
  store ptr %5, ptr %3, align 8
  %6 = call noundef zeroext i1 @_ZN4llvm13isa_impl_wrapINS_6MDNodeEPKNS_8MetadataES4_E4doitERKS4_(ptr noundef nonnull align 8 dereferenceable(8) %3)
  ret i1 %6
}

; Function Attrs: mustprogress nounwind uwtable
define linkonce_odr hidden noundef ptr @_ZNK4llvm9MDOperand3getEv(ptr noundef nonnull align 8 dereferenceable(8) %0) #1 comdat align 2 {
  %2 = alloca ptr, align 8
  store ptr %0, ptr %2, align 8
  %3 = load ptr, ptr %2, align 8
  %4 = getelementptr inbounds nuw %"class.llvm::MDOperand", ptr %3, i32 0, i32 0
  %5 = load ptr, ptr %4, align 8
  ret ptr %5
}

; Function Attrs: mustprogress nounwind uwtable
define linkonce_odr hidden noundef ptr @_ZNK4llvm25SmallVectorTemplateCommonINS_9MDOperandEvE4dataEv(ptr noundef nonnull align 8 dereferenceable(16) %0) #1 comdat align 2 {
  %2 = alloca ptr, align 8
  store ptr %0, ptr %2, align 8
  %3 = load ptr, ptr %2, align 8
  %4 = call noundef ptr @_ZNK4llvm25SmallVectorTemplateCommonINS_9MDOperandEvE5beginEv(ptr noundef nonnull align 8 dereferenceable(16) %3)
  ret ptr %4
}

; Function Attrs: mustprogress nounwind uwtable
define linkonce_odr hidden noundef ptr @_ZNK4llvm6MDNode6Header11getLargePtrEv(ptr noundef nonnull align 8 dereferenceable(12) %0) #1 comdat align 2 {
  %2 = alloca ptr, align 8
  store ptr %0, ptr %2, align 8
  %3 = load ptr, ptr %2, align 8
  %4 = getelementptr inbounds i8, ptr %3, i64 -16
  ret ptr %4
}

; Function Attrs: mustprogress nounwind uwtable
define linkonce_odr hidden noundef zeroext i1 @_ZN4llvm14CastIsPossibleINS_6MDNodeEPNS_8MetadataEvE10isPossibleERKS3_(ptr noundef nonnull align 8 dereferenceable(8) %0) #1 comdat align 2 {
  %2 = alloca ptr, align 8
  store ptr %0, ptr %2, align 8
  %3 = load ptr, ptr %2, align 8
  %4 = call noundef zeroext i1 @_ZN4llvm13isa_impl_wrapINS_6MDNodeEKPNS_8MetadataEPKS2_E4doitERS4_(ptr noundef nonnull align 8 dereferenceable(8) %3)
  ret i1 %4
}

; Function Attrs: mustprogress nounwind uwtable
define linkonce_odr hidden noundef ptr @_ZN4llvm13simplify_typeIKNS_9MDOperandEE18getSimplifiedValueERS2_(ptr noundef nonnull align 8 dereferenceable(8) %0) #1 comdat align 2 {
  %2 = alloca ptr, align 8
  store ptr %0, ptr %2, align 8
  %3 = load ptr, ptr %2, align 8
  %4 = call noundef ptr @_ZNK4llvm9MDOperand3getEv(ptr noundef nonnull align 8 dereferenceable(8) %3)
  ret ptr %4
}

; Function Attrs: mustprogress nounwind uwtable
define linkonce_odr hidden void @_ZN4llvm8ArrayRefINS_9MDOperandEEC2EPKS1_m(ptr noundef nonnull align 8 dereferenceable(16) %0, ptr noundef %1, i64 noundef %2) unnamed_addr #1 comdat align 2 {
  %4 = alloca ptr, align 8
  %5 = alloca ptr, align 8
  %6 = alloca i64, align 8
  store ptr %0, ptr %4, align 8
  store ptr %1, ptr %5, align 8
  store i64 %2, ptr %6, align 8
  %7 = load ptr, ptr %4, align 8
  %8 = getelementptr inbounds nuw %"class.llvm::ArrayRef.24", ptr %7, i32 0, i32 0
  %9 = load ptr, ptr %5, align 8
  store ptr %9, ptr %8, align 8
  %10 = getelementptr inbounds nuw %"class.llvm::ArrayRef.24", ptr %7, i32 0, i32 1
  %11 = load i64, ptr %6, align 8
  store i64 %11, ptr %10, align 8
  ret void
}

; Function Attrs: mustprogress nounwind uwtable
define linkonce_odr hidden void @_ZN4llvm8ArrayRefINS_9MDOperandEEC2IvEERKNS_25SmallVectorTemplateCommonIS1_T_EE(ptr noundef nonnull align 8 dereferenceable(16) %0, ptr noundef nonnull align 8 dereferenceable(16) %1) unnamed_addr #1 comdat align 2 {
  %3 = alloca ptr, align 8
  %4 = alloca ptr, align 8
  store ptr %0, ptr %3, align 8
  store ptr %1, ptr %4, align 8
  %5 = load ptr, ptr %3, align 8
  %6 = getelementptr inbounds nuw %"class.llvm::ArrayRef.24", ptr %5, i32 0, i32 0
  %7 = load ptr, ptr %4, align 8
  %8 = call noundef ptr @_ZNK4llvm25SmallVectorTemplateCommonINS_9MDOperandEvE4dataEv(ptr noundef nonnull align 8 dereferenceable(16) %7)
  store ptr %8, ptr %6, align 8
  %9 = getelementptr inbounds nuw %"class.llvm::ArrayRef.24", ptr %5, i32 0, i32 1
  %10 = load ptr, ptr %4, align 8
  %11 = call noundef i64 @_ZNK4llvm15SmallVectorBaseIjE4sizeEv(ptr noundef nonnull align 8 dereferenceable(16) %10)
  store i64 %11, ptr %9, align 8
  ret void
}

; Function Attrs: mustprogress nounwind uwtable
define linkonce_odr hidden noundef nonnull align 8 dereferenceable(16) ptr @_ZNK4llvm6MDNode6Header8getLargeEv(ptr noundef nonnull align 8 dereferenceable(12) %0) #1 comdat align 2 {
  %2 = alloca ptr, align 8
  store ptr %0, ptr %2, align 8
  %3 = load ptr, ptr %2, align 8
  %4 = call noundef ptr @_ZNK4llvm6MDNode6Header11getLargePtrEv(ptr noundef nonnull align 8 dereferenceable(12) %3)
  ret ptr %4
}

; Function Attrs: mustprogress nounwind uwtable
define linkonce_odr hidden noundef zeroext i1 @_ZN4llvm8CastInfoINS_6MDNodeEKNS_9MDOperandEvE10isPossibleERS3_(ptr noundef nonnull align 8 dereferenceable(8) %0) #1 comdat align 2 {
  %2 = alloca ptr, align 8
  %3 = alloca ptr, align 8
  store ptr %0, ptr %2, align 8
  %4 = load ptr, ptr %2, align 8
  %5 = call noundef ptr @_ZN4llvm13simplify_typeIKNS_9MDOperandEE18getSimplifiedValueERS2_(ptr noundef nonnull align 8 dereferenceable(8) %4)
  store ptr %5, ptr %3, align 8
  %6 = call noundef zeroext i1 @_ZN4llvm14CastIsPossibleINS_6MDNodeEPNS_8MetadataEvE10isPossibleERKS3_(ptr noundef nonnull align 8 dereferenceable(8) %3)
  ret i1 %6
}

; Function Attrs: mustprogress nounwind uwtable
define linkonce_odr hidden noundef nonnull align 8 dereferenceable(8) ptr @_ZNK4llvm8ArrayRefINS_9MDOperandEEixEm(ptr noundef nonnull align 8 dereferenceable(16) %0, i64 noundef %1) #1 comdat align 2 {
  %3 = alloca ptr, align 8
  %4 = alloca i64, align 8
  store ptr %0, ptr %3, align 8
  store i64 %1, ptr %4, align 8
  %5 = load ptr, ptr %3, align 8
  %6 = getelementptr inbounds nuw %"class.llvm::ArrayRef.24", ptr %5, i32 0, i32 0
  %7 = load ptr, ptr %6, align 8
  %8 = load i64, ptr %4, align 8
  %9 = getelementptr inbounds %"class.llvm::MDOperand", ptr %7, i64 %8
  ret ptr %9
}

; Function Attrs: mustprogress nounwind uwtable
define linkonce_odr hidden { ptr, i64 } @_ZNK4llvm6MDNode6Header8operandsEv(ptr noundef nonnull align 8 dereferenceable(12) %0) #1 comdat align 2 {
  %2 = alloca %"class.llvm::ArrayRef.24", align 8
  %3 = alloca ptr, align 8
  store ptr %0, ptr %3, align 8
  %4 = load ptr, ptr %3, align 8
  %5 = load i64, ptr %4, align 8
  %6 = lshr i64 %5, 1
  %7 = and i64 %6, 1
  %8 = trunc i64 %7 to i1
  br i1 %8, label %9, label %11

9:                                                ; preds = %1
  %10 = call noundef nonnull align 8 dereferenceable(16) ptr @_ZNK4llvm6MDNode6Header8getLargeEv(ptr noundef nonnull align 8 dereferenceable(12) %4)
  call void @_ZN4llvm8ArrayRefINS_9MDOperandEEC2IvEERKNS_25SmallVectorTemplateCommonIS1_T_EE(ptr noundef nonnull align 8 dereferenceable(16) %2, ptr noundef nonnull align 8 dereferenceable(16) %10)
  br label %22

11:                                               ; preds = %1
  %12 = load i64, ptr %4, align 8
  %13 = lshr i64 %12, 2
  %14 = and i64 %13, 15
  %15 = trunc i64 %14 to i32
  %16 = sext i32 %15 to i64
  %17 = sub i64 0, %16
  %18 = getelementptr inbounds %"class.llvm::MDOperand", ptr %4, i64 %17
  %19 = load i64, ptr %4, align 8
  %20 = lshr i64 %19, 6
  %21 = and i64 %20, 15
  call void @_ZN4llvm8ArrayRefINS_9MDOperandEEC2EPKS1_m(ptr noundef nonnull align 8 dereferenceable(16) %2, ptr noundef %18, i64 noundef %21)
  br label %22

22:                                               ; preds = %11, %9
  %23 = load { ptr, i64 }, ptr %2, align 8
  ret { ptr, i64 } %23
}

; Function Attrs: mustprogress nounwind uwtable
define linkonce_odr hidden noundef i32 @_ZNK4llvm6MDNode6Header14getNumOperandsEv(ptr noundef nonnull align 8 dereferenceable(12) %0) #1 comdat align 2 {
  %2 = alloca i32, align 4
  %3 = alloca ptr, align 8
  store ptr %0, ptr %3, align 8
  %4 = load ptr, ptr %3, align 8
  %5 = load i64, ptr %4, align 8
  %6 = lshr i64 %5, 1
  %7 = and i64 %6, 1
  %8 = trunc i64 %7 to i1
  br i1 %8, label %14, label %9

9:                                                ; preds = %1
  %10 = load i64, ptr %4, align 8
  %11 = lshr i64 %10, 6
  %12 = and i64 %11, 15
  %13 = trunc i64 %12 to i32
  store i32 %13, ptr %2, align 4
  br label %18

14:                                               ; preds = %1
  %15 = call noundef nonnull align 8 dereferenceable(16) ptr @_ZNK4llvm6MDNode6Header8getLargeEv(ptr noundef nonnull align 8 dereferenceable(12) %4)
  %16 = call noundef i64 @_ZNK4llvm15SmallVectorBaseIjE4sizeEv(ptr noundef nonnull align 8 dereferenceable(16) %15)
  %17 = trunc i64 %16 to i32
  store i32 %17, ptr %2, align 4
  br label %18

18:                                               ; preds = %14, %9
  %19 = load i32, ptr %2, align 4
  ret i32 %19
}

; Function Attrs: mustprogress nounwind uwtable
define linkonce_odr hidden noundef nonnull align 8 dereferenceable(12) ptr @_ZNK4llvm6MDNode9getHeaderEv(ptr noundef nonnull align 8 dereferenceable(16) %0) #1 comdat align 2 {
  %2 = alloca ptr, align 8
  store ptr %0, ptr %2, align 8
  %3 = load ptr, ptr %2, align 8
  %4 = getelementptr inbounds %"struct.llvm::MDNode::Header", ptr %3, i64 -1
  ret ptr %4
}

; Function Attrs: mustprogress nounwind uwtable
define linkonce_odr hidden noundef zeroext i1 @_ZN4llvm3isaINS_6MDNodeENS_9MDOperandEEEbRKT0_(ptr noundef nonnull align 8 dereferenceable(8) %0) #1 comdat {
  %2 = alloca ptr, align 8
  store ptr %0, ptr %2, align 8
  %3 = load ptr, ptr %2, align 8
  %4 = call noundef zeroext i1 @_ZN4llvm8CastInfoINS_6MDNodeEKNS_9MDOperandEvE10isPossibleERS3_(ptr noundef nonnull align 8 dereferenceable(8) %3)
  ret i1 %4
}

; Function Attrs: mustprogress nounwind uwtable
define linkonce_odr hidden noundef nonnull align 8 dereferenceable(8) ptr @_ZNK4llvm6MDNode10getOperandEj(ptr noundef nonnull align 8 dereferenceable(16) %0, i32 noundef %1) #1 comdat align 2 {
  %3 = alloca ptr, align 8
  %4 = alloca i32, align 4
  %5 = alloca %"class.llvm::ArrayRef.24", align 8
  store ptr %0, ptr %3, align 8
  store i32 %1, ptr %4, align 4
  %6 = load ptr, ptr %3, align 8
  %7 = call noundef nonnull align 8 dereferenceable(12) ptr @_ZNK4llvm6MDNode9getHeaderEv(ptr noundef nonnull align 8 dereferenceable(16) %6)
  %8 = call { ptr, i64 } @_ZNK4llvm6MDNode6Header8operandsEv(ptr noundef nonnull align 8 dereferenceable(12) %7)
  %9 = getelementptr inbounds nuw { ptr, i64 }, ptr %5, i32 0, i32 0
  %10 = extractvalue { ptr, i64 } %8, 0
  store ptr %10, ptr %9, align 8
  %11 = getelementptr inbounds nuw { ptr, i64 }, ptr %5, i32 0, i32 1
  %12 = extractvalue { ptr, i64 } %8, 1
  store i64 %12, ptr %11, align 8
  %13 = load i32, ptr %4, align 4
  %14 = zext i32 %13 to i64
  %15 = call noundef nonnull align 8 dereferenceable(8) ptr @_ZNK4llvm8ArrayRefINS_9MDOperandEEixEm(ptr noundef nonnull align 8 dereferenceable(16) %5, i64 noundef %14)
  ret ptr %15
}

; Function Attrs: mustprogress nounwind uwtable
define linkonce_odr hidden noundef i32 @_ZNK4llvm6MDNode14getNumOperandsEv(ptr noundef nonnull align 8 dereferenceable(16) %0) #1 comdat align 2 {
  %2 = alloca ptr, align 8
  store ptr %0, ptr %2, align 8
  %3 = load ptr, ptr %2, align 8
  %4 = call noundef nonnull align 8 dereferenceable(12) ptr @_ZNK4llvm6MDNode9getHeaderEv(ptr noundef nonnull align 8 dereferenceable(16) %3)
  %5 = call noundef i32 @_ZNK4llvm6MDNode6Header14getNumOperandsEv(ptr noundef nonnull align 8 dereferenceable(12) %4)
  ret i32 %5
}

; Function Attrs: mustprogress nounwind uwtable
define internal noundef zeroext i1 @_ZN12_GLOBAL__N_119isNewFormatTypeNodeEPKN4llvm6MDNodeE(ptr noundef %0) #1 {
  %2 = alloca i1, align 1
  %3 = alloca ptr, align 8
  store ptr %0, ptr %3, align 8
  %4 = load ptr, ptr %3, align 8
  %5 = call noundef i32 @_ZNK4llvm6MDNode14getNumOperandsEv(ptr noundef nonnull align 8 dereferenceable(16) %4)
  %6 = icmp ult i32 %5, 3
  br i1 %6, label %7, label %8

7:                                                ; preds = %1
  store i1 false, ptr %2, align 1
  br label %14

8:                                                ; preds = %1
  %9 = load ptr, ptr %3, align 8
  %10 = call noundef nonnull align 8 dereferenceable(8) ptr @_ZNK4llvm6MDNode10getOperandEj(ptr noundef nonnull align 8 dereferenceable(16) %9, i32 noundef 0)
  %11 = call noundef zeroext i1 @_ZN4llvm3isaINS_6MDNodeENS_9MDOperandEEEbRKT0_(ptr noundef nonnull align 8 dereferenceable(8) %10)
  br i1 %11, label %13, label %12

12:                                               ; preds = %8
  store i1 false, ptr %2, align 1
  br label %14

13:                                               ; preds = %8
  store i1 true, ptr %2, align 1
  br label %14

14:                                               ; preds = %13, %12, %7
  %15 = load i1, ptr %2, align 1
  ret i1 %15
}