; Function Attrs: mustprogress nounwind uwtable
define internal fastcc noundef zeroext i1 @_ZN12_GLOBAL__N_119isNewFormatTypeNodeEPKN4llvm6MDNodeE(ptr noundef %0) unnamed_addr #0 {
  %2 = getelementptr inbounds i8, ptr %0, i64 -16
  %3 = load i64, ptr %2, align 8
  %4 = and i64 %3, 2
  %.not.i.i = icmp eq i64 %4, 0
  br i1 %.not.i.i, label %5, label %9

5:                                                ; preds = %1
  %6 = trunc i64 %3 to i32
  %7 = lshr i32 %6, 6
  %8 = and i32 %7, 15
  br label %_ZNK4llvm6MDNode14getNumOperandsEv.exit

9:                                                ; preds = %1
  %10 = getelementptr inbounds i8, ptr %0, i64 -32
  %11 = tail call noundef i64 @_ZNK4llvm15SmallVectorBaseIjE4sizeEv(ptr noundef nonnull align 8 dereferenceable(16) %10) #20
  %12 = trunc i64 %11 to i32
  br label %_ZNK4llvm6MDNode14getNumOperandsEv.exit

_ZNK4llvm6MDNode14getNumOperandsEv.exit:          ; preds = %5, %9
  %.0.i.i = phi i32 [ %12, %9 ], [ %8, %5 ]
  %13 = icmp ult i32 %.0.i.i, 3
  br i1 %13, label %_ZN4llvm3isaINS_6MDNodeENS_9MDOperandEEEbRKT0_.exit, label %14

14:                                               ; preds = %_ZNK4llvm6MDNode14getNumOperandsEv.exit
  %15 = load i64, ptr %2, align 8
  %16 = and i64 %15, 2
  %.not.i.i3 = icmp eq i64 %16, 0
  br i1 %.not.i.i3, label %21, label %17

17:                                               ; preds = %14
  %18 = getelementptr inbounds i8, ptr %0, i64 -32
  %19 = load ptr, ptr %18, align 8
  %20 = tail call noundef i64 @_ZNK4llvm15SmallVectorBaseIjE4sizeEv(ptr noundef nonnull align 8 dereferenceable(16) %18) #20
  br label %_ZNK4llvm6MDNode10getOperandEj.exit

21:                                               ; preds = %14
  %22 = lshr i64 %15, 2
  %23 = and i64 %22, 15
  %24 = sub nsw i64 0, %23
  %25 = getelementptr inbounds %"class.llvm::MDOperand", ptr %2, i64 %24
  br label %_ZNK4llvm6MDNode10getOperandEj.exit

_ZNK4llvm6MDNode10getOperandEj.exit:              ; preds = %17, %21
  %.sroa.0.0.i.i = phi ptr [ %25, %21 ], [ %19, %17 ]
  %26 = load ptr, ptr %.sroa.0.0.i.i, align 8
  %27 = load i8, ptr %26, align 4
  %28 = icmp ult i8 %27, 36
  br i1 %28, label %switch.lookup, label %_ZN4llvm3isaINS_6MDNodeENS_9MDOperandEEEbRKT0_.exit

switch.lookup:                                    ; preds = %_ZNK4llvm6MDNode10getOperandEj.exit
  %switch.cast = zext nneg i8 %27 to i36
  %switch.downshift = lshr i36 -32, %switch.cast
  %switch.masked = trunc i36 %switch.downshift to i1
  br label %_ZN4llvm3isaINS_6MDNodeENS_9MDOperandEEEbRKT0_.exit

_ZN4llvm3isaINS_6MDNodeENS_9MDOperandEEEbRKT0_.exit: ; preds = %switch.lookup, %_ZNK4llvm6MDNode10getOperandEj.exit, %_ZNK4llvm6MDNode14getNumOperandsEv.exit
  %.0 = phi i1 [ false, %_ZNK4llvm6MDNode14getNumOperandsEv.exit ], [ false, %_ZNK4llvm6MDNode10getOperandEj.exit ], [ %switch.masked, %switch.lookup ]
  ret i1 %.0
}